target datalayout = "e-m:e-p270:32:32-p271:32:32-p272:64:64-i64:64-i128:128-f80:128-n8:16:32:64-S128"
target triple = "x86_64-pc-linux-gnu"

; Function Attrs: null_pointer_is_valid sspstrong uwtable
define internal i32 @dissect_s5066dts_raw(ptr noundef %0, ptr noundef %1, ptr noundef %2, ptr noundef %3) #0 {
  %5 = alloca i32, align 4
  %6 = alloca ptr, align 8
  %7 = alloca ptr, align 8
  %8 = alloca ptr, align 8
  %9 = alloca ptr, align 8
  %10 = alloca i32, align 4
  %11 = alloca i32, align 4
  store ptr %0, ptr %6, align 8
  store ptr %1, ptr %7, align 8
  store ptr %2, ptr %8, align 8
  store ptr %3, ptr %9, align 8
  call void @llvm.lifetime.start.p0(i64 4, ptr %10) #4
  %12 = load ptr, ptr %6, align 8
  %13 = call i32 @tvb_captured_length(ptr noundef %12)
  store i32 %13, ptr %10, align 4
  %14 = load i32, ptr %10, align 4
  %15 = icmp ult i32 %14, 15
  br i1 %15, label %16, label %17

16:                                               ; preds = %4
  store i32 0, ptr %5, align 4
  store i32 1, ptr %11, align 4
  br label %37

17:                                               ; preds = %4
  %18 = load ptr, ptr %6, align 8
  %19 = call zeroext i8 @tvb_get_uint8(ptr noundef %18, i32 noundef 0)
  %20 = zext i8 %19 to i32
  %21 = icmp ne i32 %20, 144
  br i1 %21, label %27, label %22

22:                                               ; preds = %17
  %23 = load ptr, ptr %6, align 8
  %24 = call zeroext i8 @tvb_get_uint8(ptr noundef %23, i32 noundef 1)
  %25 = zext i8 %24 to i32
  %26 = icmp ne i32 %25, 235
  br i1 %26, label %27, label %28

27:                                               ; preds = %22, %17
  store i32 0, ptr %5, align 4
  store i32 1, ptr %11, align 4
  br label %37

28:                                               ; preds = %22
  %29 = load ptr, ptr %7, align 8
  %30 = load ptr, ptr %6, align 8
  %31 = call i32 @calculate_s5066dts_dpdu_len(ptr noundef %29, ptr noundef %30, i32 noundef 0, ptr noundef null)
  %32 = load ptr, ptr %6, align 8
  %33 = load ptr, ptr %7, align 8
  %34 = load ptr, ptr %8, align 8
  %35 = call i32 @dissect_s5066dts(ptr noundef %32, ptr noundef %33, ptr noundef %34, ptr noundef null)
  %36 = load i32, ptr %10, align 4
  store i32 %36, ptr %5, align 4
  store i32 1, ptr %11, align 4
  br label %37

37:                                               ; preds = %28, %27, %16
  call void @llvm.lifetime.end.p0(i64 4, ptr %10) #4
  %38 = load i32, ptr %5, align 4
  ret i32 %38
}