; Function Attrs: null_pointer_is_valid sspstrong uwtable
define internal range(i32 15, 1) i32 @dissect_s5066dts_raw(ptr noundef %0, ptr noundef %1, ptr noundef %2, ptr readnone captures(none) %3) #0 {
  %5 = tail call i32 @tvb_captured_length(ptr noundef %0)
  %6 = icmp ult i32 %5, 15
  br i1 %6, label %14, label %7

7:                                                ; preds = %4
  %8 = tail call zeroext i8 @tvb_get_uint8(ptr noundef %0, i32 noundef 0)
  %.not = icmp eq i8 %8, -112
  br i1 %.not, label %9, label %14

9:                                                ; preds = %7
  %10 = tail call zeroext i8 @tvb_get_uint8(ptr noundef %0, i32 noundef 1)
  %.not11 = icmp eq i8 %10, -21
  br i1 %.not11, label %11, label %14

11:                                               ; preds = %9
  %12 = tail call i32 @calculate_s5066dts_dpdu_len(ptr poison, ptr noundef %0, i32 poison, ptr poison)
  %13 = tail call i32 @dissect_s5066dts(ptr noundef %0, ptr noundef %1, ptr noundef %2, ptr poison)
  br label %14

14:                                               ; preds = %7, %9, %4, %11
  %.0 = phi i32 [ %5, %11 ], [ 0, %4 ], [ 0, %9 ], [ 0, %7 ]
  ret i32 %.0
}